Certificate:
    Data:
        Version: 3 (0x2)
        Serial Number:
            74:48:97:cc:80:a8:47:c9:2f:4f:af:11:80:2d:a0:89
        Signature Algorithm: sha256WithRSAEncryption
        Issuer: CN=SAE52
        Validity
            Not Before: Sep 22 10:35:50 2024 GMT
            Not After : Dec 26 10:35:50 2026 GMT
        Subject: CN=Client1
        Subject Public Key Info:
            Public Key Algorithm: rsaEncryption
                Public-Key: (2048 bit)
                Modulus:
                    00:df:4d:24:b1:b1:27:95:d8:6f:61:bc:1e:ed:18:
                    20:0f:79:90:2a:2d:7a:3d:5b:f5:bc:ec:d8:ef:0e:
                    98:f5:7e:2a:03:dd:80:57:7c:43:7d:a3:99:d9:dc:
                    c7:df:fc:2a:33:55:9b:b1:21:da:7d:eb:ae:95:ff:
                    6c:aa:de:13:48:50:3c:5b:aa:6f:b4:2a:ed:01:c9:
                    22:9b:7d:66:34:87:63:dc:9b:9d:1d:8c:d8:94:c5:
                    27:ad:72:42:1e:7d:b7:53:1f:02:d2:f6:26:ee:2a:
                    b1:e9:19:cc:8e:1a:17:dd:4d:a1:ea:85:89:33:f7:
                    b1:64:d8:87:b3:99:2b:48:ca:23:88:57:0d:7a:5e:
                    ca:a9:05:f1:53:82:b8:44:08:be:aa:d8:cc:30:fc:
                    b8:e2:69:c2:b8:7e:c0:a9:93:28:03:f3:62:05:97:
                    9b:c4:1a:e0:eb:10:f1:07:4f:88:d2:af:e0:43:52:
                    b5:47:68:97:4d:01:e3:45:86:37:e1:51:96:d7:22:
                    04:4c:7c:ba:c7:1f:34:0d:2e:eb:f9:63:92:aa:f7:
                    a8:88:a1:b0:30:e1:11:2b:97:7d:88:37:9d:f0:ca:
                    80:19:87:b2:ec:7b:2e:15:e6:8a:a6:70:46:52:81:
                    20:a2:cd:95:ac:41:e1:ff:16:1f:0c:40:d4:ab:5b:
                    23:e5
                Exponent: 65537 (0x10001)
        X509v3 extensions:
            X509v3 Basic Constraints: 
                CA:FALSE
            X509v3 Subject Key Identifier: 
                CB:AB:62:C4:E8:2A:8C:FD:78:BF:D6:59:1B:52:F3:6A:87:BD:14:3F
            X509v3 Authority Key Identifier: 
                keyid:27:F2:F8:10:9D:7E:97:1D:75:F8:CA:9D:6F:4C:61:EF:E6:3A:BF:88
                DirName:/CN=SAE52
                serial:35:57:C8:9B:55:28:AD:53:D2:89:A0:CF:4D:4B:20:13:14:A7:16:57
            X509v3 Extended Key Usage: 
                TLS Web Client Authentication
            X509v3 Key Usage: 
                Digital Signature
    Signature Algorithm: sha256WithRSAEncryption
    Signature Value:
        4a:91:67:c7:5e:57:7c:65:89:ed:87:f7:e4:63:d7:aa:b2:d0:
        c3:3e:98:21:4b:7f:54:d8:97:93:53:c9:e9:09:9c:44:d8:05:
        78:27:f4:5f:ac:d4:26:81:76:1b:92:07:da:c9:11:e3:45:3a:
        43:a1:6f:cb:5f:83:48:48:cb:59:30:63:32:c3:bf:c8:3a:af:
        2b:c7:ff:2b:b8:48:f6:ea:1f:b2:6e:21:ce:75:75:e6:a0:4b:
        ad:9f:db:89:50:9c:66:75:7a:96:cc:99:8b:a7:1c:a5:fd:34:
        1e:8b:06:f2:4b:80:be:ac:35:f2:60:ec:34:9c:a9:e4:c0:a0:
        6d:07:4a:c4:8e:ce:08:77:5d:e9:98:fc:63:6e:88:a8:db:19:
        c2:2c:47:7e:4e:32:5a:b8:07:29:6d:32:03:33:00:a4:d2:97:
        0b:49:fb:51:c7:f8:34:0c:19:1e:a4:2f:48:c3:cb:af:19:a8:
        92:cd:ed:a6:9c:12:86:c2:b1:97:fd:5c:a1:06:33:47:0c:5a:
        d4:29:36:09:03:bc:20:da:ae:48:46:14:26:d6:14:57:a8:0b:
        d0:5e:46:a2:e3:d0:d2:61:d7:73:53:b6:32:c7:b5:e5:2c:1a:
        66:67:97:93:7e:80:6c:92:c0:d4:c8:9c:2b:40:93:dd:34:69:
        74:1c:97:cf
-----BEGIN CERTIFICATE-----
MIIDSTCCAjGgAwIBAgIQdEiXzICoR8kvT68RgC2giTANBgkqhkiG9w0BAQsFADAQ
MQ4wDAYDVQQDDAVTQUU1MjAeFw0yNDA5MjIxMDM1NTBaFw0yNjEyMjYxMDM1NTBa
MBIxEDAOBgNVBAMMB0NsaWVudDEwggEiMA0GCSqGSIb3DQEBAQUAA4IBDwAwggEK
AoIBAQDfTSSxsSeV2G9hvB7tGCAPeZAqLXo9W/W87NjvDpj1fioD3YBXfEN9o5nZ
3Mff/CozVZuxIdp9666V/2yq3hNIUDxbqm+0Ku0BySKbfWY0h2Pcm50djNiUxSet
ckIefbdTHwLS9ibuKrHpGcyOGhfdTaHqhYkz97Fk2IezmStIyiOIVw16XsqpBfFT
grhECL6q2Mww/LjiacK4fsCpkygD82IFl5vEGuDrEPEHT4jSr+BDUrVHaJdNAeNF
hjfhUZbXIgRMfLrHHzQNLuv5Y5Kq96iIobAw4RErl32IN53wyoAZh7Lsey4V5oqm
cEZSgSCizZWsQeH/Fh8MQNSrWyPlAgMBAAGjgZwwgZkwCQYDVR0TBAIwADAdBgNV
HQ4EFgQUy6tixOgqjP14v9ZZG1Lzaoe9FD8wSwYDVR0jBEQwQoAUJ/L4EJ1+lx11
+Mqdb0xh7+Y6v4ihFKQSMBAxDjAMBgNVBAMMBVNBRTUyghQ1V8ibVSitU9KJoM9N
SyATFKcWVzATBgNVHSUEDDAKBggrBgEFBQcDAjALBgNVHQ8EBAMCB4AwDQYJKoZI
hvcNAQELBQADggEBAEqRZ8deV3xlie2H9+Rj16qy0MM+mCFLf1TYl5NTyekJnETY
BXgn9F+s1CaBdhuSB9rJEeNFOkOhb8tfg0hIy1kwYzLDv8g6ryvH/yu4SPbqH7Ju
Ic51deagS62f24lQnGZ1epbMmYunHKX9NB6LBvJLgL6sNfJg7DScqeTAoG0HSsSO
zgh3XemY/GNuiKjbGcIsR35OMlq4ByltMgMzAKTSlwtJ+1HH+DQMGR6kL0jDy68Z
qJLN7aacEobCsZf9XKEGM0cMWtQpNgkDvCDarkhGFCbWFFeoC9BeRqLj0NJh13NT
tjLHteUsGmZnl5N+gGySwNTInCtAk900aXQcl88=
-----END CERTIFICATE-----
